target datalayout = "e-m:e-p270:32:32-p271:32:32-p272:64:64-i64:64-i128:128-f80:128-n8:16:32:64-S128"
target triple = "x86_64-pc-linux-gnu"

@trace2_enabled = internal global i32 0, align 4
@.str.1 = private unnamed_addr constant [9 x i8] c"trace2.c\00", align 1
@.str.6 = private unnamed_addr constant [40 x i8] c"trace2_timer_stop: invalid timer id: %d\00", align 1

; Function Attrs: nounwind uwtable
define dso_local void @trace2_timer_stop(i32 noundef %0) #0 {
  %2 = alloca i32, align 4
  store i32 %0, ptr %2, align 4, !tbaa !9
  %3 = load i32, ptr @trace2_enabled, align 4, !tbaa !9
  %4 = icmp ne i32 %3, 0
  br i1 %4, label %6, label %5

5:                                                ; preds = %1
  br label %16

6:                                                ; preds = %1
  %7 = load i32, ptr %2, align 4, !tbaa !9
  %8 = icmp ult i32 %7, 0
  br i1 %8, label %12, label %9

9:                                                ; preds = %6
  %10 = load i32, ptr %2, align 4, !tbaa !9
  %11 = icmp uge i32 %10, 2
  br i1 %11, label %12, label %14

12:                                               ; preds = %9, %6
  %13 = load i32, ptr %2, align 4, !tbaa !9
  call void (ptr, i32, ptr, ...) @BUG_fl(ptr noundef @.str.1, i32 noundef 1025, ptr noundef @.str.6, i32 noundef %13) #11
  unreachable

14:                                               ; preds = %9
  %15 = load i32, ptr %2, align 4, !tbaa !9
  call void @tr2_stop_timer(i32 noundef %15)
  br label %16

16:                                               ; preds = %14, %5
  ret void
}